target datalayout = "e-m:e-p270:32:32-p271:32:32-p272:64:64-i64:64-i128:128-f80:128-n8:16:32:64-S128"
target triple = "x86_64-pc-linux-gnu"

%"class.icu_77::UnicodeString" = type { %"class.icu_77::Replaceable", %"union.icu_77::UnicodeString::StackBufferOrFields" }
%"class.icu_77::Replaceable" = type { %"class.icu_77::UObject" }
%"class.icu_77::UObject" = type { ptr }
%"union.icu_77::UnicodeString::StackBufferOrFields" = type { %struct.anon.0, [32 x i8] }
%struct.anon.0 = type { i16, i32, i32, ptr }
%"class.icu_77::Locale" = type <{ %"class.icu_77::UObject", [12 x i8], [6 x i8], [4 x i8], [2 x i8], i32, [4 x i8], ptr, [157 x i8], [3 x i8], ptr, i8, [7 x i8] }>
%"class.icu_77::LocalPointer.8" = type { %"class.icu_77::LocalPointerBase.9" }
%"class.icu_77::LocalPointerBase.9" = type { ptr }
%"class.icu_77::DecimalFormat" = type { %"class.icu_77::NumberFormat.base", ptr }
%"class.icu_77::NumberFormat.base" = type <{ %"class.icu_77::Format", i8, [3 x i8], i32, i32, i32, i32, i8, i8, [4 x i16], [2 x i8], i32 }>
%"class.icu_77::Format" = type { %"class.icu_77::UObject", ptr, ptr }
%"struct.icu_77::number::impl::DecimalFormatFields" = type <{ [8 x i8], %"struct.icu_77::number::impl::DecimalFormatProperties", %"class.icu_77::LocalPointer.8", %"class.icu_77::number::LocalizedNumberFormatter", %"struct.std::atomic", %"struct.std::atomic", %"struct.icu_77::number::impl::DecimalFormatWarehouse", %"struct.icu_77::number::impl::DecimalFormatProperties", i8, i8, %"struct.icu_77::number::impl::DecimalFormatFields::FastFormatData", [6 x i8] }>
%"class.icu_77::number::LocalizedNumberFormatter" = type { %"class.icu_77::number::NumberFormatterSettings", ptr, [8 x i8], ptr }
%"class.icu_77::number::NumberFormatterSettings" = type { %"struct.icu_77::number::impl::MacroProps" }
%"struct.icu_77::number::impl::MacroProps" = type { [4 x i8], %"class.icu_77::number::Notation", %"class.icu_77::MeasureUnit", %"class.icu_77::MeasureUnit", %"class.icu_77::number::Precision", i32, %"class.icu_77::number::impl::Grouper", %"class.icu_77::number::impl::Padder", %"class.icu_77::number::IntegerWidth", %"class.icu_77::number::impl::SymbolsWrapper", i32, i32, i8, i32, %"class.icu_77::number::Scale", %"class.icu_77::number::impl::StringProp", %"class.icu_77::number::impl::StringProp", ptr, ptr, i32, [4 x i8], %"class.icu_77::Locale" }
%"class.icu_77::number::Notation" = type { i32, %"union.icu_77::number::Notation::NotationUnion" }
%"union.icu_77::number::Notation::NotationUnion" = type { %"struct.icu_77::number::Notation::NotationUnion::ScientificSettings" }
%"struct.icu_77::number::Notation::NotationUnion::ScientificSettings" = type { i8, i8, i16, i32 }
%"class.icu_77::MeasureUnit" = type <{ %"class.icu_77::UObject", ptr, i16, i8, [5 x i8] }>
%"class.icu_77::number::Precision" = type <{ i32, [4 x i8], %"union.icu_77::number::Precision::PrecisionUnion", i32, [4 x i8] }>
%"union.icu_77::number::Precision::PrecisionUnion" = type { %"struct.icu_77::number::Precision::PrecisionUnion::IncrementSettings" }
%"struct.icu_77::number::Precision::PrecisionUnion::IncrementSettings" = type { i64, i16, i16 }
%"class.icu_77::number::impl::Grouper" = type { i16, i16, i16, i32 }
%"class.icu_77::number::impl::Padder" = type { i32, %union.anon }
%union.anon = type { %struct.anon.10 }
%struct.anon.10 = type { i32, i32 }
%"class.icu_77::number::IntegerWidth" = type <{ %union.anon.11, i8, [3 x i8] }>
%union.anon.11 = type { i32, [4 x i8] }
%"class.icu_77::number::impl::SymbolsWrapper" = type { i32, %union.anon.13 }
%union.anon.13 = type { ptr }
%"class.icu_77::number::Scale" = type <{ i32, [4 x i8], ptr, i32, [4 x i8] }>
%"class.icu_77::number::impl::StringProp" = type { ptr, i16, i32 }
%"struct.std::atomic" = type { %"struct.std::__atomic_base" }
%"struct.std::__atomic_base" = type { ptr }
%"struct.icu_77::number::impl::DecimalFormatWarehouse" = type { [8 x i8], %"class.icu_77::number::impl::AutoAffixPatternProvider", %"class.icu_77::LocalPointer.14" }
%"class.icu_77::number::impl::AutoAffixPatternProvider" = type { %"class.icu_77::number::impl::PropertiesAffixPatternProvider", %"class.icu_77::number::impl::CurrencyPluralInfoAffixProvider" }
%"class.icu_77::number::impl::PropertiesAffixPatternProvider" = type <{ %"class.icu_77::number::impl::AffixPatternProvider", %"class.icu_77::UnicodeString", %"class.icu_77::UnicodeString", %"class.icu_77::UnicodeString", %"class.icu_77::UnicodeString", i8, i8, i8, [5 x i8] }>
%"class.icu_77::number::impl::AffixPatternProvider" = type { ptr }
%"class.icu_77::number::impl::CurrencyPluralInfoAffixProvider" = type <{ %"class.icu_77::number::impl::AffixPatternProvider", [8 x %"class.icu_77::number::impl::PropertiesAffixPatternProvider"], i8, [7 x i8] }>
%"class.icu_77::LocalPointer.14" = type { %"class.icu_77::LocalPointerBase.15" }
%"class.icu_77::LocalPointerBase.15" = type { ptr }
%"struct.icu_77::number::impl::DecimalFormatProperties" = type <{ %"class.icu_77::number::impl::NullableValue", %"class.icu_77::number::impl::NullableValue.3", %"class.icu_77::number::impl::CurrencyPluralInfoWrapper", %"class.icu_77::number::impl::NullableValue.4", i8, i8, i8, i8, i8, [3 x i8], i32, i32, i8, [3 x i8], i32, i32, i32, i32, i32, i32, i32, i32, i32, i32, i32, %"class.icu_77::UnicodeString", %"class.icu_77::UnicodeString", %"class.icu_77::UnicodeString", %"class.icu_77::UnicodeString", %"class.icu_77::number::impl::NullableValue.5", %"class.icu_77::UnicodeString", i8, i8, [2 x i8], %"class.icu_77::number::impl::NullableValue.6", i8, i8, [2 x i8], i32, [4 x i8], %"class.icu_77::UnicodeString", %"class.icu_77::UnicodeString", %"class.icu_77::UnicodeString", %"class.icu_77::UnicodeString", double, %"class.icu_77::number::impl::NullableValue.7", i32, i8, [3 x i8] }>
%"class.icu_77::number::impl::NullableValue" = type { i8, i32 }
%"class.icu_77::number::impl::NullableValue.3" = type { i8, [7 x i8], %"class.icu_77::CurrencyUnit" }
%"class.icu_77::CurrencyUnit" = type { %"class.icu_77::MeasureUnit.base", [4 x i16], [4 x i8] }
%"class.icu_77::MeasureUnit.base" = type <{ %"class.icu_77::UObject", ptr, i16, i8 }>
%"class.icu_77::number::impl::CurrencyPluralInfoWrapper" = type { %"class.icu_77::LocalPointer.1" }
%"class.icu_77::LocalPointer.1" = type { %"class.icu_77::LocalPointerBase.2" }
%"class.icu_77::LocalPointerBase.2" = type { ptr }
%"class.icu_77::number::impl::NullableValue.4" = type { i8, i32 }
%"class.icu_77::number::impl::NullableValue.5" = type { i8, i32 }
%"class.icu_77::number::impl::NullableValue.6" = type { i8, i32 }
%"class.icu_77::number::impl::NullableValue.7" = type { i8, i32 }
%"struct.icu_77::number::impl::DecimalFormatFields::FastFormatData" = type { i16, i16, i16, i8, i8 }
%"class.icu_77::ConstChar16Ptr" = type { ptr }
%struct.div_t = type { i32, i32 }

; Function Attrs: inlinehint mustprogress nounwind uwtable
define linkonce_odr noundef ptr @_ZNK6icu_7714ConstChar16Ptr3getEv(ptr noundef nonnull align 8 dereferenceable(8) %0) #2 comdat align 2 {
  %2 = alloca ptr, align 8
  store ptr %0, ptr %2, align 8, !tbaa !251
  %3 = load ptr, ptr %2, align 8
  %4 = getelementptr inbounds nuw %"class.icu_77::ConstChar16Ptr", ptr %3, i32 0, i32 0
  %5 = load ptr, ptr %4, align 8, !tbaa !253
  ret ptr %5
}

; Function Attrs: inlinehint mustprogress uwtable
define linkonce_odr noundef ptr @_ZNK6icu_7714ConstChar16PtrcvPKDsEv(ptr noundef nonnull align 8 dereferenceable(8) %0) #3 comdat align 2 {
  %2 = alloca ptr, align 8
  store ptr %0, ptr %2, align 8, !tbaa !251
  %3 = load ptr, ptr %2, align 8
  %4 = call noundef ptr @_ZNK6icu_7714ConstChar16Ptr3getEv(ptr noundef nonnull align 8 dereferenceable(8) %3)
  ret ptr %4
}

; Function Attrs: inlinehint mustprogress nounwind uwtable
define linkonce_odr void @_ZN6icu_7714ConstChar16PtrD2Ev(ptr noundef nonnull align 8 dereferenceable(8) %0) unnamed_addr #2 comdat align 2 {
  %2 = alloca ptr, align 8
  store ptr %0, ptr %2, align 8, !tbaa !251
  %3 = load ptr, ptr %2, align 8
  %4 = getelementptr inbounds nuw %"class.icu_77::ConstChar16Ptr", ptr %3, i32 0, i32 0
  %5 = load ptr, ptr %4, align 8, !tbaa !253
  call void asm sideeffect "", "rm,~{memory},~{dirflag},~{fpsr},~{flags}"(ptr %5) #15, !srcloc !259
  ret void
}

; Function Attrs: inlinehint mustprogress uwtable
define linkonce_odr noundef nonnull align 8 dereferenceable(64) ptr @_ZN6icu_7713UnicodeString6appendENS_14ConstChar16PtrEi(ptr noundef nonnull align 8 dereferenceable(64) %0, ptr noundef %1, i32 noundef %2) #3 comdat align 2 {
  %4 = alloca ptr, align 8
  %5 = alloca ptr, align 8
  %6 = alloca i32, align 4
  store ptr %0, ptr %4, align 8, !tbaa !51
  store ptr %1, ptr %5, align 8, !tbaa !251
  store i32 %2, ptr %6, align 4, !tbaa !14
  %7 = load ptr, ptr %4, align 8
  %8 = call noundef ptr @_ZNK6icu_7714ConstChar16PtrcvPKDsEv(ptr noundef nonnull align 8 dereferenceable(8) %1)
  %9 = load i32, ptr %6, align 4, !tbaa !14
  %10 = call noundef nonnull align 8 dereferenceable(64) ptr @_ZN6icu_7713UnicodeString8doAppendEPKDsii(ptr noundef nonnull align 8 dereferenceable(64) %7, ptr noundef %8, i32 noundef 0, i32 noundef %9)
  ret ptr %10
}

; Function Attrs: inlinehint mustprogress nounwind uwtable
define linkonce_odr void @_ZN6icu_7714ConstChar16PtrC2EPKDs(ptr noundef nonnull align 8 dereferenceable(8) %0, ptr noundef %1) unnamed_addr #2 comdat align 2 {
  %3 = alloca ptr, align 8
  %4 = alloca ptr, align 8
  store ptr %0, ptr %3, align 8, !tbaa !251
  store ptr %1, ptr %4, align 8, !tbaa !25
  %5 = load ptr, ptr %3, align 8
  %6 = getelementptr inbounds nuw %"class.icu_77::ConstChar16Ptr", ptr %5, i32 0, i32 0
  %7 = load ptr, ptr %4, align 8, !tbaa !25
  store ptr %7, ptr %6, align 8, !tbaa !253
  ret void
}

; Function Attrs: inlinehint mustprogress uwtable
define linkonce_odr noundef nonnull align 8 dereferenceable(64) ptr @_ZN6icu_7713UnicodeString6appendEDs(ptr noundef nonnull align 8 dereferenceable(64) %0, i16 noundef zeroext %1) #3 comdat align 2 {
  %3 = alloca ptr, align 8
  %4 = alloca i16, align 2
  store ptr %0, ptr %3, align 8, !tbaa !51
  store i16 %1, ptr %4, align 2, !tbaa !324
  %5 = load ptr, ptr %3, align 8
  %6 = call noundef nonnull align 8 dereferenceable(64) ptr @_ZN6icu_7713UnicodeString8doAppendEPKDsii(ptr noundef nonnull align 8 dereferenceable(64) %5, ptr noundef %4, i32 noundef 0, i32 noundef 1)
  ret ptr %6
}

; Function Attrs: mustprogress uwtable
define void @_ZNK6icu_7713DecimalFormat17doFastFormatInt32EibRNS_13UnicodeStringE(ptr noundef nonnull align 8 dereferenceable(72) %0, i32 noundef %1, i1 noundef zeroext %2, ptr noundef nonnull align 8 dereferenceable(64) %3) #1 align 2 personality ptr @__gxx_personality_v0 {
  %5 = alloca ptr, align 8
  %6 = alloca i32, align 4
  %7 = alloca i8, align 1
  %8 = alloca ptr, align 8
  %9 = alloca [13 x i16], align 16
  %10 = alloca ptr, align 8
  %11 = alloca i8, align 1
  %12 = alloca i8, align 1
  %13 = alloca i8, align 1
  %14 = alloca %struct.div_t, align 4
  %15 = alloca i32, align 4
  %16 = alloca %"class.icu_77::ConstChar16Ptr", align 8
  %17 = alloca ptr, align 8
  %18 = alloca i32, align 4
  store ptr %0, ptr %5, align 8, !tbaa !23
  store i32 %1, ptr %6, align 4, !tbaa !14
  %19 = zext i1 %2 to i8
  store i8 %19, ptr %7, align 1, !tbaa !229
  store ptr %3, ptr %8, align 8, !tbaa !51
  %20 = load ptr, ptr %5, align 8
  %21 = load i8, ptr %7, align 1, !tbaa !229, !range !128, !noundef !129
  %22 = trunc i8 %21 to i1
  br i1 %22, label %23, label %33

23:                                               ; preds = %4
  %24 = load ptr, ptr %8, align 8, !tbaa !51
  %25 = getelementptr inbounds nuw %"class.icu_77::DecimalFormat", ptr %20, i32 0, i32 1
  %26 = load ptr, ptr %25, align 8, !tbaa !31
  %27 = getelementptr inbounds nuw %"struct.icu_77::number::impl::DecimalFormatFields", ptr %26, i32 0, i32 10
  %28 = getelementptr inbounds nuw %"struct.icu_77::number::impl::DecimalFormatFields::FastFormatData", ptr %27, i32 0, i32 2
  %29 = load i16, ptr %28, align 2, !tbaa !313
  %30 = call noundef nonnull align 8 dereferenceable(64) ptr @_ZN6icu_7713UnicodeString6appendEDs(ptr noundef nonnull align 8 dereferenceable(64) %24, i16 noundef zeroext %29)
  %31 = load i32, ptr %6, align 4, !tbaa !14
  %32 = sub nsw i32 0, %31
  store i32 %32, ptr %6, align 4, !tbaa !14
  br label %33

33:                                               ; preds = %23, %4
  call void @llvm.lifetime.start.p0(i64 26, ptr %9) #15
  call void @llvm.lifetime.start.p0(i64 8, ptr %10) #15
  %34 = getelementptr inbounds [13 x i16], ptr %9, i64 0, i64 0
  %35 = getelementptr inbounds i16, ptr %34, i64 13
  store ptr %35, ptr %10, align 8, !tbaa !25
  call void @llvm.lifetime.start.p0(i64 1, ptr %11) #15
  store i8 0, ptr %11, align 1, !tbaa !56
  call void @llvm.lifetime.start.p0(i64 1, ptr %12) #15
  %36 = getelementptr inbounds nuw %"class.icu_77::DecimalFormat", ptr %20, i32 0, i32 1
  %37 = load ptr, ptr %36, align 8, !tbaa !31
  %38 = getelementptr inbounds nuw %"struct.icu_77::number::impl::DecimalFormatFields", ptr %37, i32 0, i32 10
  %39 = getelementptr inbounds nuw %"struct.icu_77::number::impl::DecimalFormatFields::FastFormatData", ptr %38, i32 0, i32 3
  %40 = load i8, ptr %39, align 2, !tbaa !314
  %41 = sext i8 %40 to i32
  %42 = icmp slt i32 %41, 1
  br i1 %42, label %43, label %44

43:                                               ; preds = %33
  br label %51

44:                                               ; preds = %33
  %45 = getelementptr inbounds nuw %"class.icu_77::DecimalFormat", ptr %20, i32 0, i32 1
  %46 = load ptr, ptr %45, align 8, !tbaa !31
  %47 = getelementptr inbounds nuw %"struct.icu_77::number::impl::DecimalFormatFields", ptr %46, i32 0, i32 10
  %48 = getelementptr inbounds nuw %"struct.icu_77::number::impl::DecimalFormatFields::FastFormatData", ptr %47, i32 0, i32 3
  %49 = load i8, ptr %48, align 2, !tbaa !314
  %50 = sext i8 %49 to i32
  br label %51

51:                                               ; preds = %44, %43
  %52 = phi i32 [ 1, %43 ], [ %50, %44 ]
  %53 = trunc i32 %52 to i8
  store i8 %53, ptr %12, align 1, !tbaa !56
  call void @llvm.lifetime.start.p0(i64 1, ptr %13) #15
  store i8 0, ptr %13, align 1, !tbaa !56
  br label %54

54:                                               ; preds = %116, %51
  %55 = load i8, ptr %13, align 1, !tbaa !56
  %56 = sext i8 %55 to i32
  %57 = getelementptr inbounds nuw %"class.icu_77::DecimalFormat", ptr %20, i32 0, i32 1
  %58 = load ptr, ptr %57, align 8, !tbaa !31
  %59 = getelementptr inbounds nuw %"struct.icu_77::number::impl::DecimalFormatFields", ptr %58, i32 0, i32 10
  %60 = getelementptr inbounds nuw %"struct.icu_77::number::impl::DecimalFormatFields::FastFormatData", ptr %59, i32 0, i32 4
  %61 = load i8, ptr %60, align 1, !tbaa !315
  %62 = sext i8 %61 to i32
  %63 = icmp slt i32 %56, %62
  br i1 %63, label %64, label %75

64:                                               ; preds = %54
  %65 = load i32, ptr %6, align 4, !tbaa !14
  %66 = icmp ne i32 %65, 0
  br i1 %66, label %73, label %67

67:                                               ; preds = %64
  %68 = load i8, ptr %13, align 1, !tbaa !56
  %69 = sext i8 %68 to i32
  %70 = load i8, ptr %12, align 1, !tbaa !56
  %71 = sext i8 %70 to i32
  %72 = icmp slt i32 %69, %71
  br label %73

73:                                               ; preds = %67, %64
  %74 = phi i1 [ true, %64 ], [ %72, %67 ]
  br label %75

75:                                               ; preds = %73, %54
  %76 = phi i1 [ false, %54 ], [ %74, %73 ]
  br i1 %76, label %78, label %77

77:                                               ; preds = %75
  call void @llvm.lifetime.end.p0(i64 1, ptr %13) #15
  br label %119

78:                                               ; preds = %75
  %79 = load i8, ptr %11, align 1, !tbaa !56
  %80 = add i8 %79, 1
  store i8 %80, ptr %11, align 1, !tbaa !56
  %81 = sext i8 %79 to i32
  %82 = icmp eq i32 %81, 3
  br i1 %82, label %83, label %99

83:                                               ; preds = %78
  %84 = getelementptr inbounds nuw %"class.icu_77::DecimalFormat", ptr %20, i32 0, i32 1
  %85 = load ptr, ptr %84, align 8, !tbaa !31
  %86 = getelementptr inbounds nuw %"struct.icu_77::number::impl::DecimalFormatFields", ptr %85, i32 0, i32 10
  %87 = getelementptr inbounds nuw %"struct.icu_77::number::impl::DecimalFormatFields::FastFormatData", ptr %86, i32 0, i32 1
  %88 = load i16, ptr %87, align 2, !tbaa !312
  %89 = zext i16 %88 to i32
  %90 = icmp ne i32 %89, 0
  br i1 %90, label %91, label %99

91:                                               ; preds = %83
  %92 = getelementptr inbounds nuw %"class.icu_77::DecimalFormat", ptr %20, i32 0, i32 1
  %93 = load ptr, ptr %92, align 8, !tbaa !31
  %94 = getelementptr inbounds nuw %"struct.icu_77::number::impl::DecimalFormatFields", ptr %93, i32 0, i32 10
  %95 = getelementptr inbounds nuw %"struct.icu_77::number::impl::DecimalFormatFields::FastFormatData", ptr %94, i32 0, i32 1
  %96 = load i16, ptr %95, align 2, !tbaa !312
  %97 = load ptr, ptr %10, align 8, !tbaa !25
  %98 = getelementptr inbounds i16, ptr %97, i32 -1
  store ptr %98, ptr %10, align 8, !tbaa !25
  store i16 %96, ptr %98, align 2, !tbaa !324
  store i8 1, ptr %11, align 1, !tbaa !56
  br label %99

99:                                               ; preds = %91, %83, %78
  call void @llvm.lifetime.start.p0(i64 8, ptr %14) #15
  %100 = load i32, ptr %6, align 4, !tbaa !14
  %101 = call i64 @div(i32 noundef %100, i32 noundef 10) #18
  store i64 %101, ptr %14, align 4
  %102 = getelementptr inbounds nuw %"class.icu_77::DecimalFormat", ptr %20, i32 0, i32 1
  %103 = load ptr, ptr %102, align 8, !tbaa !31
  %104 = getelementptr inbounds nuw %"struct.icu_77::number::impl::DecimalFormatFields", ptr %103, i32 0, i32 10
  %105 = getelementptr inbounds nuw %"struct.icu_77::number::impl::DecimalFormatFields::FastFormatData", ptr %104, i32 0, i32 0
  %106 = load i16, ptr %105, align 2, !tbaa !311
  %107 = zext i16 %106 to i32
  %108 = getelementptr inbounds nuw %struct.div_t, ptr %14, i32 0, i32 1
  %109 = load i32, ptr %108, align 4, !tbaa !325
  %110 = add nsw i32 %107, %109
  %111 = trunc i32 %110 to i16
  %112 = load ptr, ptr %10, align 8, !tbaa !25
  %113 = getelementptr inbounds i16, ptr %112, i32 -1
  store ptr %113, ptr %10, align 8, !tbaa !25
  store i16 %111, ptr %113, align 2, !tbaa !324
  %114 = getelementptr inbounds nuw %struct.div_t, ptr %14, i32 0, i32 0
  %115 = load i32, ptr %114, align 4, !tbaa !327
  store i32 %115, ptr %6, align 4, !tbaa !14
  call void @llvm.lifetime.end.p0(i64 8, ptr %14) #15
  br label %116

116:                                              ; preds = %99
  %117 = load i8, ptr %13, align 1, !tbaa !56
  %118 = add i8 %117, 1
  store i8 %118, ptr %13, align 1, !tbaa !56
  br label %54, !llvm.loop !328

119:                                              ; preds = %77
  call void @llvm.lifetime.start.p0(i64 4, ptr %15) #15
  %120 = load ptr, ptr %10, align 8, !tbaa !25
  %121 = getelementptr inbounds [13 x i16], ptr %9, i64 0, i64 0
  %122 = ptrtoint ptr %120 to i64
  %123 = ptrtoint ptr %121 to i64
  %124 = sub i64 %122, %123
  %125 = sdiv exact i64 %124, 2
  %126 = trunc i64 %125 to i32
  %127 = sub nsw i32 13, %126
  store i32 %127, ptr %15, align 4, !tbaa !14
  %128 = load ptr, ptr %8, align 8, !tbaa !51
  %129 = load ptr, ptr %10, align 8, !tbaa !25
  call void @_ZN6icu_7714ConstChar16PtrC2EPKDs(ptr noundef nonnull align 8 dereferenceable(8) %16, ptr noundef %129)
  %130 = load i32, ptr %15, align 4, !tbaa !14
  %131 = invoke noundef nonnull align 8 dereferenceable(64) ptr @_ZN6icu_7713UnicodeString6appendENS_14ConstChar16PtrEi(ptr noundef nonnull align 8 dereferenceable(64) %128, ptr noundef %16, i32 noundef %130)
          to label %132 unwind label %133

132:                                              ; preds = %119
  call void @_ZN6icu_7714ConstChar16PtrD2Ev(ptr noundef nonnull align 8 dereferenceable(8) %16) #15
  call void @llvm.lifetime.end.p0(i64 4, ptr %15) #15
  call void @llvm.lifetime.end.p0(i64 1, ptr %12) #15
  call void @llvm.lifetime.end.p0(i64 1, ptr %11) #15
  call void @llvm.lifetime.end.p0(i64 8, ptr %10) #15
  call void @llvm.lifetime.end.p0(i64 26, ptr %9) #15
  ret void

133:                                              ; preds = %119
  %134 = landingpad { ptr, i32 }
          cleanup
  %135 = extractvalue { ptr, i32 } %134, 0
  store ptr %135, ptr %17, align 8
  %136 = extractvalue { ptr, i32 } %134, 1
  store i32 %136, ptr %18, align 4
  call void @_ZN6icu_7714ConstChar16PtrD2Ev(ptr noundef nonnull align 8 dereferenceable(8) %16) #15
  call void @llvm.lifetime.end.p0(i64 4, ptr %15) #15
  call void @llvm.lifetime.end.p0(i64 1, ptr %12) #15
  call void @llvm.lifetime.end.p0(i64 1, ptr %11) #15
  call void @llvm.lifetime.end.p0(i64 8, ptr %10) #15
  call void @llvm.lifetime.end.p0(i64 26, ptr %9) #15
  br label %137

137:                                              ; preds = %133
  %138 = load ptr, ptr %17, align 8
  %139 = load i32, ptr %18, align 4
  %140 = insertvalue { ptr, i32 } poison, ptr %138, 0
  %141 = insertvalue { ptr, i32 } %140, i32 %139, 1
  resume { ptr, i32 } %141
}