; Function Attrs: mustprogress uwtable
define void @_ZNK6icu_7713DecimalFormat17doFastFormatInt32EibRNS_13UnicodeStringE(ptr noundef nonnull readonly align 8 captures(none) dereferenceable(72) %0, i32 noundef %1, i1 noundef zeroext %2, ptr noundef nonnull align 8 dereferenceable(64) %3) local_unnamed_addr #1 align 2 personality ptr @__gxx_personality_v0 {
  %5 = alloca i16, align 2
  %6 = alloca [13 x i16], align 16
  br i1 %2, label %7, label %14

7:                                                ; preds = %4
  %8 = getelementptr inbounds nuw i8, ptr %0, i64 64
  %9 = load ptr, ptr %8, align 8, !tbaa !25
  %10 = getelementptr inbounds nuw i8, ptr %9, i64 4534
  %11 = load i16, ptr %10, align 2, !tbaa !201
  call void @llvm.lifetime.start.p0(i64 2, ptr nonnull %5)
  store i16 %11, ptr %5, align 2, !tbaa !21
  %12 = call noundef nonnull align 8 dereferenceable(64) ptr @_ZN6icu_7713UnicodeString8doAppendEPKDsii(ptr noundef nonnull align 8 dereferenceable(64) %3, ptr noundef nonnull %5, i32 noundef 0, i32 noundef 1)
  call void @llvm.lifetime.end.p0(i64 2, ptr nonnull %5)
  %13 = sub nsw i32 0, %1
  br label %14

14:                                               ; preds = %7, %4
  %.0 = phi i32 [ %13, %7 ], [ %1, %4 ]
  call void @llvm.lifetime.start.p0(i64 26, ptr nonnull %6) #19
  %15 = getelementptr inbounds nuw i8, ptr %6, i64 26
  %16 = getelementptr inbounds nuw i8, ptr %0, i64 64
  %17 = load ptr, ptr %16, align 8, !tbaa !25
  %18 = getelementptr inbounds nuw i8, ptr %17, i64 4536
  %19 = load i8, ptr %18, align 2, !tbaa !202
  %narrow = call i8 @llvm.smax.i8(i8 %19, i8 1)
  %20 = getelementptr inbounds nuw i8, ptr %17, i64 4537
  %21 = load i8, ptr %20, align 1, !tbaa !203
  %22 = icmp sgt i8 %21, 0
  br i1 %22, label %.lr.ph, label %.critedge

.lr.ph:                                           ; preds = %14
  %23 = getelementptr inbounds nuw i8, ptr %17, i64 4532
  %24 = getelementptr inbounds nuw i8, ptr %17, i64 4530
  br label %25

25:                                               ; preds = %.lr.ph, %43
  %.130 = phi i32 [ %.0, %.lr.ph ], [ %.sroa.0.0.extract.trunc, %43 ]
  %.01829 = phi ptr [ %15, %.lr.ph ], [ %47, %43 ]
  %.02028 = phi i8 [ 0, %.lr.ph ], [ %.121, %43 ]
  %.02227 = phi i8 [ 0, %.lr.ph ], [ %48, %43 ]
  %26 = icmp ne i32 %.130, 0
  %27 = icmp samesign ugt i8 %narrow, %.02227
  %28 = select i1 %26, i1 true, i1 %27
  br i1 %28, label %36, label %.critedge

.critedge:                                        ; preds = %25, %43, %14
  %.018.lcssa = phi ptr [ %15, %14 ], [ %47, %43 ], [ %.01829, %25 ]
  %29 = ptrtoint ptr %.018.lcssa to i64
  %30 = ptrtoint ptr %6 to i64
  %31 = sub i64 %29, %30
  %32 = lshr exact i64 %31, 1
  %33 = trunc i64 %32 to i32
  %34 = sub nsw i32 13, %33
  %35 = invoke noundef nonnull align 8 dereferenceable(64) ptr @_ZN6icu_7713UnicodeString8doAppendEPKDsii(ptr noundef nonnull align 8 dereferenceable(64) %3, ptr noundef nonnull %.018.lcssa, i32 noundef 0, i32 noundef %34)
          to label %_ZN6icu_7713UnicodeString6appendENS_14ConstChar16PtrEi.exit unwind label %49

36:                                               ; preds = %25
  %37 = add i8 %.02028, 1
  %38 = icmp eq i8 %.02028, 3
  br i1 %38, label %39, label %43

39:                                               ; preds = %36
  %40 = load i16, ptr %23, align 2, !tbaa !200
  %.not = icmp eq i16 %40, 0
  br i1 %.not, label %43, label %41

41:                                               ; preds = %39
  %42 = getelementptr inbounds i8, ptr %.01829, i64 -2
  store i16 %40, ptr %42, align 2, !tbaa !21
  br label %43

43:                                               ; preds = %41, %39, %36
  %.121 = phi i8 [ 1, %41 ], [ 4, %39 ], [ %37, %36 ]
  %.119 = phi ptr [ %42, %41 ], [ %.01829, %39 ], [ %.01829, %36 ]
  %44 = call i64 @div(i32 noundef %.130, i32 noundef 10) #22
  %.sroa.0.0.extract.trunc = trunc i64 %44 to i32
  %.sroa.4.0.extract.shift = lshr i64 %44, 32
  %.sroa.4.0.extract.trunc = trunc i64 %.sroa.4.0.extract.shift to i16
  %45 = load i16, ptr %24, align 2, !tbaa !199
  %46 = add i16 %45, %.sroa.4.0.extract.trunc
  %47 = getelementptr inbounds i8, ptr %.119, i64 -2
  store i16 %46, ptr %47, align 2, !tbaa !21
  %48 = add nuw nsw i8 %.02227, 1
  %exitcond.not = icmp eq i8 %48, %21
  br i1 %exitcond.not, label %.critedge, label %25, !llvm.loop !204

_ZN6icu_7713UnicodeString6appendENS_14ConstChar16PtrEi.exit: ; preds = %.critedge
  call void asm sideeffect "", "rm,~{memory},~{dirflag},~{fpsr},~{flags}"(ptr nonnull %.018.lcssa) #19, !srcloc !175
  call void @llvm.lifetime.end.p0(i64 26, ptr nonnull %6) #19
  ret void

49:                                               ; preds = %.critedge
  %50 = landingpad { ptr, i32 }
          cleanup
  call void asm sideeffect "", "rm,~{memory},~{dirflag},~{fpsr},~{flags}"(ptr nonnull %.018.lcssa) #19, !srcloc !175
  call void @llvm.lifetime.end.p0(i64 26, ptr nonnull %6) #19
  resume { ptr, i32 } %50
}